; ModuleID = 'source-C-CXX/21/82.c'
source_filename = "source-C-CXX/21/82.c"
target datalayout = "e-m:e-p270:32:32-p271:32:32-p272:64:64-i64:64-f80:128-n8:16:32:64-S128"
target triple = "x86_64-pc-linux-gnu"

%struct._IO_FILE = type { i32, i8*, i8*, i8*, i8*, i8*, i8*, i8*, i8*, i8*, i8*, i8*, %struct._IO_marker*, %struct._IO_FILE*, i32, i32, i64, i16, i8, [1 x i8], i8*, i64, %struct._IO_codecvt*, %struct._IO_wide_data*, %struct._IO_FILE*, i8*, i64, i32, [20 x i8] }
%struct._IO_marker = type opaque
%struct._IO_codecvt = type opaque
%struct._IO_wide_data = type opaque

@.str = private unnamed_addr constant [3 x i8] c"%d\00", align 1
@.str.1 = private unnamed_addr constant [3 x i8] c"No\00", align 1
@stdin = external local_unnamed_addr global %struct._IO_FILE*, align 8

; Function Attrs: nofree nounwind sspstrong uwtable
define dso_local void @main() local_unnamed_addr #0 {
  %1 = alloca [300 x i32], align 16
  %2 = bitcast [300 x i32]* %1 to i8*
  call void @llvm.lifetime.start.p0i8(i64 1200, i8* nonnull %2) #4
  br label %3

3:                                                ; preds = %3, %0
  %4 = phi i64 [ %5, %3 ], [ 0, %0 ]
  %5 = add nuw i64 %4, 1
  %6 = getelementptr inbounds [300 x i32], [300 x i32]* %1, i64 0, i64 %5
  %7 = call i32 (i8*, ...) @__isoc99_scanf(i8* getelementptr inbounds ([3 x i8], [3 x i8]* @.str, i64 0, i64 0), i32* nonnull %6)
  %8 = load %struct._IO_FILE*, %struct._IO_FILE** @stdin, align 8, !tbaa !5
  %9 = call i32 @getc(%struct._IO_FILE* %8) #4
  %10 = and i32 %9, 255
  %11 = icmp eq i32 %10, 44
  br i1 %11, label %3, label %12, !llvm.loop !9

12:                                               ; preds = %3
  %13 = trunc i64 %4 to i32
  %14 = icmp eq i32 %13, 0
  br i1 %14, label %174, label %15

15:                                               ; preds = %12
  %16 = getelementptr inbounds [300 x i32], [300 x i32]* %1, i64 0, i64 1
  %17 = load i32, i32* %16, align 4, !tbaa !11
  %18 = add i64 %4, 2
  %19 = and i64 %18, 4294967295
  %20 = icmp eq i64 %19, 2
  br i1 %20, label %96, label %21, !llvm.loop !13

21:                                               ; preds = %15
  %22 = add nsw i64 %19, -2
  %23 = icmp ult i64 %22, 8
  br i1 %23, label %93, label %24

24:                                               ; preds = %21
  %25 = and i64 %22, -8
  %26 = or i64 %25, 2
  %27 = insertelement <4 x i32> poison, i32 %17, i32 0
  %28 = shufflevector <4 x i32> %27, <4 x i32> poison, <4 x i32> zeroinitializer
  %29 = add nsw i64 %25, -8
  %30 = lshr exact i64 %29, 3
  %31 = add nuw nsw i64 %30, 1
  %32 = and i64 %31, 1
  %33 = icmp eq i64 %29, 0
  br i1 %33, label %68, label %34

34:                                               ; preds = %24
  %35 = and i64 %31, 4611686018427387902
  br label %36

36:                                               ; preds = %36, %34
  %37 = phi i64 [ 0, %34 ], [ %63, %36 ]
  %38 = phi <4 x i32> [ %28, %34 ], [ %61, %36 ]
  %39 = phi <4 x i32> [ %28, %34 ], [ %62, %36 ]
  %40 = phi i64 [ %35, %34 ], [ %64, %36 ]
  %41 = or i64 %37, 2
  %42 = getelementptr inbounds [300 x i32], [300 x i32]* %1, i64 0, i64 %41
  %43 = bitcast i32* %42 to <4 x i32>*
  %44 = load <4 x i32>, <4 x i32>* %43, align 8, !tbaa !11
  %45 = getelementptr inbounds i32, i32* %42, i64 4
  %46 = bitcast i32* %45 to <4 x i32>*
  %47 = load <4 x i32>, <4 x i32>* %46, align 8, !tbaa !11
  %48 = icmp slt <4 x i32> %38, %44
  %49 = icmp slt <4 x i32> %39, %47
  %50 = select <4 x i1> %48, <4 x i32> %44, <4 x i32> %38
  %51 = select <4 x i1> %49, <4 x i32> %47, <4 x i32> %39
  %52 = or i64 %37, 10
  %53 = getelementptr inbounds [300 x i32], [300 x i32]* %1, i64 0, i64 %52
  %54 = bitcast i32* %53 to <4 x i32>*
  %55 = load <4 x i32>, <4 x i32>* %54, align 8, !tbaa !11
  %56 = getelementptr inbounds i32, i32* %53, i64 4
  %57 = bitcast i32* %56 to <4 x i32>*
  %58 = load <4 x i32>, <4 x i32>* %57, align 8, !tbaa !11
  %59 = icmp slt <4 x i32> %50, %55
  %60 = icmp slt <4 x i32> %51, %58
  %61 = select <4 x i1> %59, <4 x i32> %55, <4 x i32> %50
  %62 = select <4 x i1> %60, <4 x i32> %58, <4 x i32> %51
  %63 = add nuw i64 %37, 16
  %64 = add i64 %40, -2
  %65 = icmp eq i64 %64, 0
  br i1 %65, label %66, label %36, !llvm.loop !14

66:                                               ; preds = %36
  %67 = or i64 %63, 2
  br label %68

68:                                               ; preds = %66, %24
  %69 = phi <4 x i32> [ undef, %24 ], [ %61, %66 ]
  %70 = phi <4 x i32> [ undef, %24 ], [ %62, %66 ]
  %71 = phi i64 [ 2, %24 ], [ %67, %66 ]
  %72 = phi <4 x i32> [ %28, %24 ], [ %61, %66 ]
  %73 = phi <4 x i32> [ %28, %24 ], [ %62, %66 ]
  %74 = icmp eq i64 %32, 0
  br i1 %74, label %86, label %75

75:                                               ; preds = %68
  %76 = getelementptr inbounds [300 x i32], [300 x i32]* %1, i64 0, i64 %71
  %77 = bitcast i32* %76 to <4 x i32>*
  %78 = load <4 x i32>, <4 x i32>* %77, align 8, !tbaa !11
  %79 = getelementptr inbounds i32, i32* %76, i64 4
  %80 = bitcast i32* %79 to <4 x i32>*
  %81 = load <4 x i32>, <4 x i32>* %80, align 8, !tbaa !11
  %82 = icmp slt <4 x i32> %73, %81
  %83 = select <4 x i1> %82, <4 x i32> %81, <4 x i32> %73
  %84 = icmp slt <4 x i32> %72, %78
  %85 = select <4 x i1> %84, <4 x i32> %78, <4 x i32> %72
  br label %86

86:                                               ; preds = %68, %75
  %87 = phi <4 x i32> [ %69, %68 ], [ %85, %75 ]
  %88 = phi <4 x i32> [ %70, %68 ], [ %83, %75 ]
  %89 = icmp sgt <4 x i32> %87, %88
  %90 = select <4 x i1> %89, <4 x i32> %87, <4 x i32> %88
  %91 = call i32 @llvm.vector.reduce.smax.v4i32(<4 x i32> %90)
  %92 = icmp eq i64 %22, %25
  br i1 %92, label %96, label %93

93:                                               ; preds = %21, %86
  %94 = phi i64 [ 2, %21 ], [ %26, %86 ]
  %95 = phi i32 [ %17, %21 ], [ %91, %86 ]
  br label %110

96:                                               ; preds = %110, %86, %15
  %97 = phi i32 [ %17, %15 ], [ %91, %86 ], [ %116, %110 ]
  %98 = icmp sgt i32 %17, 0
  %99 = icmp slt i32 %17, %97
  %100 = select i1 %98, i1 %99, i1 false
  %101 = select i1 %100, i32 %17, i32 0
  %102 = icmp eq i64 %19, 2
  br i1 %102, label %171, label %103, !llvm.loop !16

103:                                              ; preds = %96
  %104 = add nsw i64 %19, -2
  %105 = add nsw i64 %19, -3
  %106 = and i64 %104, 3
  %107 = icmp ult i64 %105, 3
  br i1 %107, label %153, label %108

108:                                              ; preds = %103
  %109 = and i64 %104, -4
  br label %119

110:                                              ; preds = %93, %110
  %111 = phi i64 [ %117, %110 ], [ %94, %93 ]
  %112 = phi i32 [ %116, %110 ], [ %95, %93 ]
  %113 = getelementptr inbounds [300 x i32], [300 x i32]* %1, i64 0, i64 %111
  %114 = load i32, i32* %113, align 4, !tbaa !11
  %115 = icmp slt i32 %112, %114
  %116 = select i1 %115, i32 %114, i32 %112
  %117 = add nuw nsw i64 %111, 1
  %118 = icmp eq i64 %117, %19
  br i1 %118, label %96, label %110, !llvm.loop !17

119:                                              ; preds = %119, %108
  %120 = phi i64 [ 2, %108 ], [ %150, %119 ]
  %121 = phi i32 [ %101, %108 ], [ %149, %119 ]
  %122 = phi i64 [ %109, %108 ], [ %151, %119 ]
  %123 = getelementptr inbounds [300 x i32], [300 x i32]* %1, i64 0, i64 %120
  %124 = load i32, i32* %123, align 8, !tbaa !11
  %125 = icmp slt i32 %121, %124
  %126 = icmp slt i32 %124, %97
  %127 = select i1 %125, i1 %126, i1 false
  %128 = select i1 %127, i32 %124, i32 %121
  %129 = or i64 %120, 1
  %130 = getelementptr inbounds [300 x i32], [300 x i32]* %1, i64 0, i64 %129
  %131 = load i32, i32* %130, align 4, !tbaa !11
  %132 = icmp slt i32 %128, %131
  %133 = icmp slt i32 %131, %97
  %134 = select i1 %132, i1 %133, i1 false
  %135 = select i1 %134, i32 %131, i32 %128
  %136 = add nuw nsw i64 %120, 2
  %137 = getelementptr inbounds [300 x i32], [300 x i32]* %1, i64 0, i64 %136
  %138 = load i32, i32* %137, align 8, !tbaa !11
  %139 = icmp slt i32 %135, %138
  %140 = icmp slt i32 %138, %97
  %141 = select i1 %139, i1 %140, i1 false
  %142 = select i1 %141, i32 %138, i32 %135
  %143 = add nuw nsw i64 %120, 3
  %144 = getelementptr inbounds [300 x i32], [300 x i32]* %1, i64 0, i64 %143
  %145 = load i32, i32* %144, align 4, !tbaa !11
  %146 = icmp slt i32 %142, %145
  %147 = icmp slt i32 %145, %97
  %148 = select i1 %146, i1 %147, i1 false
  %149 = select i1 %148, i32 %145, i32 %142
  %150 = add nuw nsw i64 %120, 4
  %151 = add i64 %122, -4
  %152 = icmp eq i64 %151, 0
  br i1 %152, label %153, label %119, !llvm.loop !16

153:                                              ; preds = %119, %103
  %154 = phi i32 [ undef, %103 ], [ %149, %119 ]
  %155 = phi i64 [ 2, %103 ], [ %150, %119 ]
  %156 = phi i32 [ %101, %103 ], [ %149, %119 ]
  %157 = icmp eq i64 %106, 0
  br i1 %157, label %171, label %158

158:                                              ; preds = %153, %158
  %159 = phi i64 [ %168, %158 ], [ %155, %153 ]
  %160 = phi i32 [ %167, %158 ], [ %156, %153 ]
  %161 = phi i64 [ %169, %158 ], [ %106, %153 ]
  %162 = getelementptr inbounds [300 x i32], [300 x i32]* %1, i64 0, i64 %159
  %163 = load i32, i32* %162, align 4, !tbaa !11
  %164 = icmp slt i32 %160, %163
  %165 = icmp slt i32 %163, %97
  %166 = select i1 %164, i1 %165, i1 false
  %167 = select i1 %166, i32 %163, i32 %160
  %168 = add nuw nsw i64 %159, 1
  %169 = add i64 %161, -1
  %170 = icmp eq i64 %169, 0
  br i1 %170, label %171, label %158, !llvm.loop !19

171:                                              ; preds = %153, %158, %96
  %172 = phi i32 [ %101, %96 ], [ %154, %153 ], [ %167, %158 ]
  %173 = icmp eq i32 %172, 0
  br i1 %173, label %174, label %176

174:                                              ; preds = %12, %171
  %175 = call i32 (i8*, ...) @printf(i8* nonnull dereferenceable(1) getelementptr inbounds ([3 x i8], [3 x i8]* @.str.1, i64 0, i64 0))
  br label %178

176:                                              ; preds = %171
  %177 = call i32 (i8*, ...) @printf(i8* nonnull dereferenceable(1) getelementptr inbounds ([3 x i8], [3 x i8]* @.str, i64 0, i64 0), i32 %172)
  br label %178

178:                                              ; preds = %176, %174
  call void @llvm.lifetime.end.p0i8(i64 1200, i8* nonnull %2) #4
  ret void
}

; Function Attrs: argmemonly mustprogress nofree nosync nounwind willreturn
declare void @llvm.lifetime.start.p0i8(i64 immarg, i8* nocapture) #1

; Function Attrs: nofree nounwind
declare noundef i32 @__isoc99_scanf(i8* nocapture noundef readonly, ...) local_unnamed_addr #2

; Function Attrs: nofree nounwind
declare noundef i32 @printf(i8* nocapture noundef readonly, ...) local_unnamed_addr #2

; Function Attrs: argmemonly mustprogress nofree nosync nounwind willreturn
declare void @llvm.lifetime.end.p0i8(i64 immarg, i8* nocapture) #1

; Function Attrs: nofree nounwind
declare noundef i32 @getc(%struct._IO_FILE* nocapture noundef) local_unnamed_addr #2

; Function Attrs: nofree nosync nounwind readnone willreturn
declare i32 @llvm.vector.reduce.smax.v4i32(<4 x i32>) #3


!llvm.module.flags = !{!0, !1, !2, !3}
!llvm.ident = !{!4}

!0 = !{i32 1, !"wchar_size", i32 4}
!1 = !{i32 7, !"PIC Level", i32 2}
!2 = !{i32 7, !"PIE Level", i32 2}
!3 = !{i32 7, !"uwtable", i32 1}
!4 = !{!"clang version 13.0.0"}
!5 = !{!6, !6, i64 0}
!6 = !{!"any pointer", !7, i64 0}
!7 = !{!"omnipotent char", !8, i64 0}
!8 = !{!"Simple C/C++ TBAA"}
!9 = distinct !{!9, !10}
!10 = !{!"llvm.loop.mustprogress"}
!11 = !{!12, !12, i64 0}
!12 = !{!"int", !7, i64 0}
!13 = distinct !{!13, !10}
!14 = distinct !{!14, !10, !15}
!15 = !{!"llvm.loop.isvectorized", i32 1}
!16 = distinct !{!16, !10}
!17 = distinct !{!17, !10, !18, !15}
!18 = !{!"llvm.loop.unroll.runtime.disable"}
!19 = distinct !{!19, !20}
!20 = !{!"llvm.loop.unroll.disable"}
